target datalayout = "e-m:e-p270:32:32-p271:32:32-p272:64:64-i64:64-i128:128-f80:128-n8:16:32:64-S128"
target triple = "x86_64-pc-linux-gnu"

; Function Attrs: nounwind sspstrong uwtable
define internal i64 @rb_hash_values_at(i32 noundef %0, ptr noundef %1, i64 noundef %2) #0 {
  %4 = alloca i32, align 4
  %5 = alloca ptr, align 8
  %6 = alloca i64, align 8
  %7 = alloca i64, align 8
  %8 = alloca i64, align 8
  store i32 %0, ptr %4, align 4, !tbaa !16
  store ptr %1, ptr %5, align 8, !tbaa !11
  store i64 %2, ptr %6, align 8, !tbaa !7
  call void @llvm.lifetime.start.p0(i64 8, ptr %7) #28
  %9 = load i32, ptr %4, align 4, !tbaa !16
  %10 = sext i32 %9 to i64
  %11 = call i64 @rb_ary_new_capa(i64 noundef %10)
  store i64 %11, ptr %7, align 8, !tbaa !7
  call void @llvm.lifetime.start.p0(i64 8, ptr %8) #28
  store i64 0, ptr %8, align 8, !tbaa !7
  br label %12

12:                                               ; preds = %26, %3
  %13 = load i64, ptr %8, align 8, !tbaa !7
  %14 = load i32, ptr %4, align 4, !tbaa !16
  %15 = sext i32 %14 to i64
  %16 = icmp slt i64 %13, %15
  br i1 %16, label %17, label %29

17:                                               ; preds = %12
  %18 = load i64, ptr %7, align 8, !tbaa !7
  %19 = load i64, ptr %6, align 8, !tbaa !7
  %20 = load ptr, ptr %5, align 8, !tbaa !11
  %21 = load i64, ptr %8, align 8, !tbaa !7
  %22 = getelementptr i64, ptr %20, i64 %21
  %23 = load i64, ptr %22, align 8, !tbaa !7
  %24 = call i64 @rb_hash_aref(i64 noundef %19, i64 noundef %23)
  %25 = call i64 @rb_ary_push(i64 noundef %18, i64 noundef %24)
  br label %26

26:                                               ; preds = %17
  %27 = load i64, ptr %8, align 8, !tbaa !7
  %28 = add i64 %27, 1
  store i64 %28, ptr %8, align 8, !tbaa !7
  br label %12, !llvm.loop !114

29:                                               ; preds = %12
  %30 = load i64, ptr %7, align 8, !tbaa !7
  call void @llvm.lifetime.end.p0(i64 8, ptr %8) #28
  call void @llvm.lifetime.end.p0(i64 8, ptr %7) #28
  ret i64 %30
}