; Function Attrs: nounwind sspstrong uwtable
define internal i64 @rb_hash_values_at(i32 noundef %0, ptr noundef readonly captures(none) %1, i64 noundef %2) #0 {
  %4 = sext i32 %0 to i64
  %5 = tail call i64 @rb_ary_new_capa(i64 noundef %4) #28
  %6 = icmp sgt i32 %0, 0
  br i1 %6, label %.lr.ph, label %._crit_edge

.lr.ph:                                           ; preds = %3, %.lr.ph
  %.08 = phi i64 [ %11, %.lr.ph ], [ 0, %3 ]
  %7 = getelementptr i64, ptr %1, i64 %.08
  %8 = load i64, ptr %7, align 8, !tbaa !7
  %9 = tail call i64 @rb_hash_aref(i64 noundef %2, i64 noundef %8)
  %10 = tail call i64 @rb_ary_push(i64 noundef %5, i64 noundef %9) #28
  %11 = add nuw nsw i64 %.08, 1
  %exitcond.not = icmp eq i64 %11, %4
  br i1 %exitcond.not, label %._crit_edge, label %.lr.ph, !llvm.loop !105

._crit_edge:                                      ; preds = %.lr.ph, %3
  ret i64 %5
}